EXPORTS
    _Z8printvoiRKSt6vectorIySaIyEE @1
    _Z8printvosRKSt6vectorISsSaISsEE @2
    _ZN8StaticDB10GetCommandERKSs @3
    _ZN8StaticDB10ads_getCMDEPKcPi @4
    _ZN8StaticDB10baseCreateERKNS_7db_fileEy @5
    _ZN8StaticDB10baseDeleteEPNS_9_staticDBEy @6
    _ZN8StaticDB10baseExtendEPNS_9_staticDBEyPKvi @7
    _ZN8StaticDB10baseInsertEPNS_9_staticDBEPKvi @8
    _ZN8StaticDB10baseUpdateEPNS_9_staticDBEyPKvi @9
    _ZN8StaticDB10bufferSizeEi @10
    _ZN8StaticDB10copy_tupleERNS_5tupleERKS0_ @11
    _ZN8StaticDB10fileExistsERKSs @12
    _ZN8StaticDB10pairCreateEPNS_9_staticDBERKSsRKNS_5tupleE @13
    _ZN8StaticDB10pairExistsEPNS_9_staticDBERKSs @14
    _ZN8StaticDB10pairInsertEPNS_9_staticDBERKNS_5tupleES4_ @15
    _ZN8StaticDB10pairUpdateEPNS_9_staticDBERKNS_5tupleES4_ @16
    _ZN8StaticDB10projectionEPNS_9_staticDBERKNS_5tupleERKNS_12_storeStructE @17
    _ZN8StaticDB10run_ScriptEPNS_9_staticDBEPKc @18
    _ZN8StaticDB10type_errorD0Ev @19
    _ZN8StaticDB10type_errorD1Ev @20
    _ZN8StaticDB11baseDestroyEPNS_11_stringBaseE @21
    _ZN8StaticDB11base_CommitEPNS_11_stringBaseERKNS_7db_fileE @22
    _ZN8StaticDB11comma_countEPKci @23
    _ZN8StaticDB11createTableEPNS_9_staticDBERKSsRKNS_5tupleE @24
    _ZN8StaticDB11getPairNodeEPNS_9_staticDBERKSs @25
    _ZN8StaticDB11get_db_fileEPNS_9_staticDBE @26
    _ZN8StaticDB11index_errorD0Ev @27
    _ZN8StaticDB11index_errorD1Ev @28
    _ZN8StaticDB11sdb_executeEPNS_9_staticDBERSt6vectorISsSaISsEE @29
    _ZN8StaticDB11tableInsertEPNS_9_staticDBERKSsRKNS_5tupleE @30
    _ZN8StaticDB12ads_dbCommitEPNS_9_staticDBE @31
    _ZN8StaticDB12ads_pairKeysEPNS_9_staticDBE @32
    _ZN8StaticDB12baseNodeCStrEPNS_9_staticDBEy @33
    _ZN8StaticDB12baseNodeSizeEPNS_9_staticDBEy @34
    _ZN8StaticDB12cache_insertEPNS_11_stringBaseEy @35
    _ZN8StaticDB12deleteBufferEPNS_9_staticDBEy @36
    _ZN8StaticDB12delete_tupleERNS_5tupleE @37
    _ZN8StaticDB12extendBufferEPNS_9_staticDBEyRKNS_5tupleE @38
    _ZN8StaticDB12get_NoSqlMsgEv @39
    _ZN8StaticDB12get_StartMsgEv @40
    _ZN8StaticDB12is_sel_matchEPNS_9_staticDBERKNS_12_storeStructERKNS_5tupleEi @41
    _ZN8StaticDB12memory_errorD0Ev @42
    _ZN8StaticDB12memory_errorD1Ev @43
    _ZN8StaticDB12remove_spaceEPcPi @44
    _ZN8StaticDB12selection_OREPNS_9_staticDBERKNS_12_storeStructERKNS_5tupleE @45
    _ZN8StaticDB12str_to_int64ERKSsi @46
    _ZN8StaticDB12tupleLiteralEPKc @47
    _ZN8StaticDB12tupleToIndexEPNS_9_staticDBERKNS_5tupleE @48
    _ZN8StaticDB12updateBufferEPNS_9_staticDBEyRKNS_5tupleE @49
    _ZN8StaticDB13ads_connectDBEPPNS_9_staticDBERKSsS4_ @50
    _ZN8StaticDB13ads_getOldCMDEPKcPi @51
    _ZN8StaticDB13ads_pairCountEPNS_9_pairBaseE @52
    _ZN8StaticDB13ads_pairFetchEPNS_9_staticDBERKNS_5tupleE @53
    _ZN8StaticDB13base_HasIndexEPNS_9_staticDBEy @54
    _ZN8StaticDB13default_startEv @55
    _ZN8StaticDB13getBufferSizeERKNS_5tupleE @56
    _ZN8StaticDB13sdb_ParseTypeEPKci @57
    _ZN8StaticDB13selection_ANDEPNS_9_staticDBERKNS_12_storeStructERKNS_5tupleE @58
    _ZN8StaticDB14ads_pairDeleteEPNS_9_staticDBERKNS_5tupleE @59
    _ZN8StaticDB14baseInsertCStrEPNS_9_staticDBERKSs @60
    _ZN8StaticDB14base_del_countEPNS_11_stringBaseE @61
    _ZN8StaticDB14base_del_printEPNS_9_staticDBE @62
    _ZN8StaticDB14db_write_dummyEPKcPNS_12_sdbMasterDBE @63
    _ZN8StaticDB14getDB_BaseTreeEPNS_9_staticDBE @64
    _ZN8StaticDB14getDB_PairTreeEPNS_9_staticDBE @65
    _ZN8StaticDB14get_tupleIndexEPNS_9_staticDBEyRKNS_5tupleEi @66
    _ZN8StaticDB14index_to_tupleEPNS_9_staticDBEy @67
    _ZN8StaticDB14recognize_typeEPKci @68
    _ZN8StaticDB14reset_baseNodeEPNS_9_baseNodeE @69
    _ZN8StaticDB14set_cache_sizeEPNS_9_staticDBEj @70
    _ZN8StaticDB14writeSignatureERKNS_7db_fileE @71
    _ZN8StaticDB15ads_pairDestroyEPNS_9_pairBaseE @72
    _ZN8StaticDB15base_del_insertEPNS_11_stringBaseEyx @73
    _ZN8StaticDB15base_mem_detailEPNS_9_staticDBE @74
    _ZN8StaticDB15is_side_by_sideEPNS_11_stringBaseEii @75
    _ZN8StaticDB15shrink_adjacentEPNS_11_stringBaseE @76
    _ZN8StaticDB15split_traversalERKSs @77
    _ZN8StaticDB16ads_disconnectDBEPNS_9_staticDBE @78
    _ZN8StaticDB16copy_storeStructEPNS_12_storeStructEPKS0_ii @79
    _ZN8StaticDB16isSignatureMatchERKNS_7db_fileE @80
    _ZN8StaticDB16multi_line_inputEv @81
    _ZN8StaticDB16sdb_resetNoSqlRTEv @82
    _ZN8StaticDB17delete_tupleIndexEPNS_9_staticDBEyRKNS_5tupleEi @83
    _ZN8StaticDB17get_mem_for_writeEPNS_11_stringBaseEjRi @84
    _ZN8StaticDB17noSql_ReturnTupleERKNS_5tupleE @85
    _ZN8StaticDB17update_tupleIndexEPNS_9_staticDBEyRKNS_5tupleEiS4_ @86
    _ZN8StaticDB17verifyTupleFormatERKNS_5tupleEPKNS_7db_TYPEEi @87
    _ZN8StaticDB18ads_pairBaseCreateEv @88
    _ZN8StaticDB18identifierValidityEPKcib @89
    _ZN8StaticDB18is_condition_matchEPNS_9_staticDBERKNS_12_storeStructERKNS_5tupleEi @90
    _ZN8StaticDB18return_storeStructEPKNS_12_storeStructEii @91
    _ZN8StaticDB19ads_isCommanPresentEPKci @92
    _ZN8StaticDB19eliminate_conditionEPNS_9_staticDBERKNS_12_storeStructERKNS_5tupleE @93
    _ZN8StaticDB19generate_TypeFormatEPKciPi @94
    _ZN8StaticDB19storeStruct_extractEPNS_9_staticDBEPKNS_12_storeStructEiRNS_5tupleE @95
    _ZN8StaticDB20get_NoSqlReturnTupleEv @96
    _ZN8StaticDB20storeStruct_to_tupleEPNS_9_staticDBEPKNS_12_storeStructEi @97
    _ZN8StaticDB20update_mem_for_writeEPNS_11_stringBaseEPNS_9_baseNodeE @98
    _ZN8StaticDB21ads_isValidFormattingEPKcPi @99
    _ZN8StaticDB21get_index_storeStructEPNS_9_staticDBEPKNS_12_storeStructEiRKSs @100
    _ZN8StaticDB23remove_space_completelyEPc @101
    _ZN8StaticDB24sdb_freeNoSqlReturnTupleEv @102
    _ZN8StaticDB26baseNode_utility_disk_sizeEv @103
    _ZN8StaticDB5SplitERKSsS1_ @104
    _ZN8StaticDB5array10append_intEx @105
    _ZN8StaticDB5array11append_boolEb @106
    _ZN8StaticDB5array11append_nullEv @107
    _ZN8StaticDB5array12append_arrayERKS0_ @108
    _ZN8StaticDB5array12append_tupleERKNS_5tupleE @109
    _ZN8StaticDB5array13append_doubleEd @110
    _ZN8StaticDB5array13append_stringERKSs @111
    _ZN8StaticDB5arrayC1Ei @112
    _ZN8StaticDB5arrayC2Ei @113
    _ZN8StaticDB5tuple10append_intERKSsx @114
    _ZN8StaticDB5tuple10append_intEx @115
    _ZN8StaticDB5tuple10free_indexEi @116
    _ZN8StaticDB5tuple11append_boolERKSsb @117
    _ZN8StaticDB5tuple11append_boolEb @118
    _ZN8StaticDB5tuple11append_nullERKSs @119
    _ZN8StaticDB5tuple11append_nullEv @120
    _ZN8StaticDB5tuple12append_arrayERKS0_ @121
    _ZN8StaticDB5tuple12append_arrayERKSsRKS0_ @122
    _ZN8StaticDB5tuple12append_tupleERKS0_ @123
    _ZN8StaticDB5tuple12append_tupleERKSsRKS0_ @124
    _ZN8StaticDB5tuple13append_doubleERKSsd @125
    _ZN8StaticDB5tuple13append_doubleEd @126
    _ZN8StaticDB5tuple13append_stringERKSs @127
    _ZN8StaticDB5tuple13append_stringERKSsS2_ @128
    _ZN8StaticDB5tuple6removeEi @129
    _ZN8StaticDB5tuple7del_keyERKSsi @130
    _ZN8StaticDB5tuple7set_keyERKSsi @131
    _ZN8StaticDB5tupleC1ERKS0_ @132
    _ZN8StaticDB5tupleC1Eib @133
    _ZN8StaticDB5tupleC2ERKS0_ @134
    _ZN8StaticDB5tupleC2Eib @135
    _ZN8StaticDB5tupleD1Ev @136
    _ZN8StaticDB5tupleD2Ev @137
    _ZN8StaticDB5tupleaSERKS0_ @138
    _ZN8StaticDB6opbracEc @139
    _ZN8StaticDB7decryptERKSs @140
    _ZN8StaticDB7encryptERKSs @141
    _ZN8StaticDB7endbracEi @142
    _ZN8StaticDB7stricmpERKSsS1_ @143
    _ZN8StaticDB8Database10disconnectEv @144
    _ZN8StaticDB8Database7connectERKSsS2_ @145
    _ZN8StaticDB8Database7executeERKSs @146
    _ZN8StaticDB8baseDataEPNS_9_staticDBEy @147
    _ZN8StaticDB8baseReadEPNS_11_stringBaseERKNS_7db_fileEy @148
    _ZN8StaticDB8checksumEPvjy @149
    _ZN8StaticDB8cmd_findEPNS_9_staticDBERKNS_5tupleES4_S4_ @150
    _ZN8StaticDB8cstrHashERKSs @151
    _ZN8StaticDB8pairReadEPNS_9_staticDBEy @152
    _ZN8StaticDB8splitKeyERKSs @153
    _ZN8StaticDB8strnicmpERKSsS1_j @154
    _ZN8StaticDB9baseCountEPNS_11_stringBaseE @155
    _ZN8StaticDB9baseWriteEPNS_11_stringBaseERKNS_7db_fileEPy @156
    _ZN8StaticDB9db_exportEPNS_9_staticDBERKSsb @157
    _ZN8StaticDB9isIntegerERKSs @158
    _ZN8StaticDB9noSql_MsgENS_7nosqlRTEPKc @159
    _ZN8StaticDB9pairWriteEPNS_9_staticDBE @160
    _ZN8StaticDB9sdb_errorD0Ev @161
    _ZN8StaticDB9sdb_errorD1Ev @162
    _ZN8StaticDB9sdb_parseEPNS_9_staticDBERKSs @163
    _ZN8StaticDB9selectionEPNS_9_staticDBERKNS_5tupleERKNS_12_storeStructES4_ @164
    _ZN8StaticDB9startbracEi @165
    _ZN8StaticDB9tupleSizeEi @166
    _ZN8StaticDBlsERSoSt6vectorIhSaIhEE @167
    _ZNK8StaticDB10type_error4whatEv @168
    _ZNK8StaticDB11index_error4whatEv @169
    _ZNK8StaticDB12memory_error4whatEv @170
    _ZNK8StaticDB5array4sizeEv @171
    _ZNK8StaticDB5array6memoryEv @172
    _ZNK8StaticDB5array7is_nullEi @173
    _ZNK8StaticDB5array8get_typeEi @174
    _ZNK8StaticDB5tuple10enclose_inEi @175
    _ZNK8StaticDB5tuple10get_doubleERKSs @176
    _ZNK8StaticDB5tuple10get_doubleEi @177
    _ZNK8StaticDB5tuple10get_stringERKSs @178
    _ZNK8StaticDB5tuple10get_stringEi @179
    _ZNK8StaticDB5tuple14get_tup_or_arrERKSs @180
    _ZNK8StaticDB5tuple14get_tup_or_arrEi @181
    _ZNK8StaticDB5tuple4sizeEv @182
    _ZNK8StaticDB5tuple5printERKSs @183
    _ZNK8StaticDB5tuple5printERSt14basic_ofstreamIcSt11char_traitsIcEERKSs @184
    _ZNK8StaticDB5tuple6memoryEv @185
    _ZNK8StaticDB5tuple7get_intERKSs @186
    _ZNK8StaticDB5tuple7get_intEi @187
    _ZNK8StaticDB5tuple7get_keyEi @188
    _ZNK8StaticDB5tuple7has_keyEi @189
    _ZNK8StaticDB5tuple7is_nullERKSs @190
    _ZNK8StaticDB5tuple7is_nullEi @191
    _ZNK8StaticDB5tuple8get_boolERKSs @192
    _ZNK8StaticDB5tuple8get_boolEi @193
    _ZNK8StaticDB5tuple8get_typeERKSs @194
    _ZNK8StaticDB5tuple8get_typeEi @195
    _ZNK8StaticDB5tuple8is_arrayEv @196
    _ZNK8StaticDB5tuple8traverseERKS0_i @197
    _ZNK8StaticDB5tuple8traverseERKSsi @198
    _ZNK8StaticDB5tuple9get_arrayERKSs @199
    _ZNK8StaticDB5tuple9get_arrayEi @200
    _ZNK8StaticDB5tuple9get_indexERKSs @201
    _ZNK8StaticDB5tuple9get_tupleERKSs @202
    _ZNK8StaticDB5tuple9get_tupleEi @203
    _ZNK8StaticDB9sdb_error4whatEv @204
    _ZNKSt5ctypeIcE8do_widenEc @205
    _ZNSt15basic_stringbufIcSt11char_traitsIcESaIcEED1Ev @206
    _ZNSt6vectorIN8StaticDB7delNodeESaIS1_EE19_M_emplace_back_auxIIRKS1_EEEvDpOT_ @207
    _ZNSt6vectorIN8StaticDB7delNodeESaIS1_EE8_M_eraseEN9__gnu_cxx17__normal_iteratorIPS1_S3_EE @208
    _ZNSt6vectorISsSaISsEE16_M_shrink_to_fitEv @209
    _ZNSt6vectorISsSaISsEE19_M_emplace_back_auxIIRKSsEEEvDpOT_ @210
    _ZNSt6vectorIySaIyEE19_M_emplace_back_auxIIRKyEEEvDpOT_ @211
    _ZNSt8_Rb_treeIySt4pairIKyPN8StaticDB8sdb_pairEESt10_Select1stIS5_ESt4lessIyESaIS5_EE16_M_insert_uniqueIS0_IyS4_EEES0_ISt17_Rb_tree_iteratorIS5_EbEOT_ @212
    _ZNSt8_Rb_treeIySt4pairIKyPN8StaticDB8sdb_pairEESt10_Select1stIS5_ESt4lessIyESaIS5_EE5eraseERS1_ @213
    _ZNSt8_Rb_treeIySt4pairIKyPN8StaticDB8sdb_pairEESt10_Select1stIS5_ESt4lessIyESaIS5_EE8_M_eraseEPSt13_Rb_tree_nodeIS5_E @214
    _ZNSt8_Rb_treeIySt4pairIKyPN8StaticDB9_baseNodeEESt10_Select1stIS5_ESt4lessIyESaIS5_EE16_M_insert_uniqueIS0_IyS4_EEES0_ISt17_Rb_tree_iteratorIS5_EbEOT_ @215
    _ZNSt8_Rb_treeIySt4pairIKyPN8StaticDB9_baseNodeEESt10_Select1stIS5_ESt4lessIyESaIS5_EE8_M_eraseEPSt13_Rb_tree_nodeIS5_E @216
    _ZSt13__adjust_heapIN9__gnu_cxx17__normal_iteratorIPN8StaticDB7delNodeESt6vectorIS3_SaIS3_EEEEiS3_NS0_5__ops15_Iter_comp_iterIPFbS3_S3_EEEEvT_T0_SF_T1_T2_ @217
    _ZSt13__heap_selectIN9__gnu_cxx17__normal_iteratorIPN8StaticDB7delNodeESt6vectorIS3_SaIS3_EEEENS0_5__ops15_Iter_comp_iterIPFbS3_S3_EEEEvT_SE_SE_T0_ @218
    _ZSt16__insertion_sortIN9__gnu_cxx17__normal_iteratorIPN8StaticDB7delNodeESt6vectorIS3_SaIS3_EEEENS0_5__ops15_Iter_comp_iterIPFbS3_S3_EEEEvT_SE_T0_ @219
    _ZSt16__introsort_loopIN9__gnu_cxx17__normal_iteratorIPN8StaticDB7delNodeESt6vectorIS3_SaIS3_EEEEiNS0_5__ops15_Iter_comp_iterIPFbS3_S3_EEEEvT_SE_T0_T1_ @220
    _ZSt22__move_median_to_firstIN9__gnu_cxx17__normal_iteratorIPN8StaticDB7delNodeESt6vectorIS3_SaIS3_EEEENS0_5__ops15_Iter_comp_iterIPFbS3_S3_EEEEvT_SE_SE_SE_T0_ @221
    _ZSt25__unguarded_linear_insertIN9__gnu_cxx17__normal_iteratorIPN8StaticDB7delNodeESt6vectorIS3_SaIS3_EEEENS0_5__ops14_Val_comp_iterIPFbS3_S3_EEEEvT_T0_ @222
    _ZStplIcSt11char_traitsIcESaIcEESbIT_T0_T1_ERKS6_S8_ @223
    _ZTIN8StaticDB10type_errorE @224 DATA
    _ZTIN8StaticDB11index_errorE @225 DATA
    _ZTIN8StaticDB12memory_errorE @226 DATA
    _ZTIN8StaticDB9sdb_errorE @227 DATA
    _ZTISt9exception @228 DATA
    _ZTSN8StaticDB10type_errorE @229 DATA
    _ZTSN8StaticDB11index_errorE @230 DATA
    _ZTSN8StaticDB12memory_errorE @231 DATA
    _ZTSN8StaticDB9sdb_errorE @232 DATA
    _ZTSSt9exception @233 DATA
    _ZTVN8StaticDB10type_errorE @234 DATA
    _ZTVN8StaticDB11index_errorE @235 DATA
    _ZTVN8StaticDB12memory_errorE @236 DATA
    _ZTVN8StaticDB9sdb_errorE @237 DATA
    _get_output_format @238
    main @239
